target datalayout = "e-m:e-p270:32:32-p271:32:32-p272:64:64-i64:64-i128:128-f80:128-n8:16:32:64-S128"
target triple = "x86_64-pc-linux-gnu"

%"class.std::__cxx11::basic_string" = type { %"struct.std::__cxx11::basic_string<char>::_Alloc_hider", i64, %union.anon }
%"struct.std::__cxx11::basic_string<char>::_Alloc_hider" = type { ptr }
%union.anon = type { i64, [8 x i8] }

; Function Attrs: mustprogress nounwind uwtable
define available_externally noundef ptr @_ZNKSt7__cxx1112basic_stringIcSt11char_traitsIcESaIcEE7_M_dataEv(ptr noundef nonnull align 8 dereferenceable(32) %0) #6 align 2 {
  %2 = alloca ptr, align 8
  store ptr %0, ptr %2, align 8, !tbaa !3
  %3 = load ptr, ptr %2, align 8
  %4 = getelementptr inbounds nuw %"class.std::__cxx11::basic_string", ptr %3, i32 0, i32 0
  %5 = getelementptr inbounds nuw %"struct.std::__cxx11::basic_string<char>::_Alloc_hider", ptr %4, i32 0, i32 0
  %6 = load ptr, ptr %5, align 8, !tbaa !147
  ret ptr %6
}

; Function Attrs: mustprogress uwtable
define available_externally void @_ZNSt7__cxx1112basic_stringIcSt11char_traitsIcESaIcEE6resizeEm(ptr noundef nonnull align 8 dereferenceable(32) %0, i64 noundef %1) #4 align 2 {
  %3 = alloca ptr, align 8
  %4 = alloca i64, align 8
  store ptr %0, ptr %3, align 8, !tbaa !3
  store i64 %1, ptr %4, align 8, !tbaa !13
  %5 = load ptr, ptr %3, align 8
  %6 = load i64, ptr %4, align 8, !tbaa !13
  call void @_ZNSt7__cxx1112basic_stringIcSt11char_traitsIcESaIcEE6resizeEmc(ptr noundef nonnull align 8 dereferenceable(32) %5, i64 noundef %6, i8 noundef signext 0)
  ret void
}

; Function Attrs: inlinehint mustprogress nounwind uwtable
define linkonce_odr hidden void @_ZN6google8protobuf24GOOGLE_UNALIGNED_STORE64EPvm(ptr noundef %0, i64 noundef %1) #8 comdat {
  %3 = alloca ptr, align 8
  %4 = alloca i64, align 8
  store ptr %0, ptr %3, align 8, !tbaa !137
  store i64 %1, ptr %4, align 8, !tbaa !13
  %5 = load ptr, ptr %3, align 8, !tbaa !137
  call void @llvm.memcpy.p0.p0.i64(ptr align 1 %5, ptr align 8 %4, i64 8, i1 false)
  ret void
}

; Function Attrs: inlinehint mustprogress nounwind uwtable
define linkonce_odr hidden noundef i64 @_ZN6google8protobuf23GOOGLE_UNALIGNED_LOAD64EPKv(ptr noundef %0) #8 comdat {
  %2 = alloca ptr, align 8
  %3 = alloca i64, align 8
  store ptr %0, ptr %2, align 8, !tbaa !137
  call void @llvm.lifetime.start.p0(i64 8, ptr %3) #3
  %4 = load ptr, ptr %2, align 8, !tbaa !137
  call void @llvm.memcpy.p0.p0.i64(ptr align 8 %3, ptr align 1 %4, i64 8, i1 false)
  %5 = load i64, ptr %3, align 8, !tbaa !13
  call void @llvm.lifetime.end.p0(i64 8, ptr %3) #3
  ret i64 %5
}

; Function Attrs: mustprogress nounwind uwtable
define available_externally noundef nonnull align 1 dereferenceable(1) ptr @_ZNSt7__cxx1112basic_stringIcSt11char_traitsIcESaIcEEixEm(ptr noundef nonnull align 8 dereferenceable(32) %0, i64 noundef %1) #6 align 2 {
  %3 = alloca ptr, align 8
  %4 = alloca i64, align 8
  store ptr %0, ptr %3, align 8, !tbaa !3
  store i64 %1, ptr %4, align 8, !tbaa !13
  %5 = load ptr, ptr %3, align 8
  br label %6

6:                                                ; preds = %2
  br label %7

7:                                                ; preds = %6
  %8 = call noundef ptr @_ZNKSt7__cxx1112basic_stringIcSt11char_traitsIcESaIcEE7_M_dataEv(ptr noundef nonnull align 8 dereferenceable(32) %5)
  %9 = load i64, ptr %4, align 8, !tbaa !13
  %10 = getelementptr inbounds nuw i8, ptr %8, i64 %9
  ret ptr %10
}

; Function Attrs: mustprogress nounwind uwtable
define available_externally noundef i64 @_ZNKSt7__cxx1112basic_stringIcSt11char_traitsIcESaIcEE4sizeEv(ptr noundef nonnull align 8 dereferenceable(32) %0) #6 align 2 {
  %2 = alloca ptr, align 8
  store ptr %0, ptr %2, align 8, !tbaa !3
  %3 = load ptr, ptr %2, align 8
  %4 = getelementptr inbounds nuw %"class.std::__cxx11::basic_string", ptr %3, i32 0, i32 1
  %5 = load i64, ptr %4, align 8, !tbaa !19
  ret i64 %5
}

; Function Attrs: mustprogress uwtable
define hidden void @_ZN6google8protobuf22CleanStringLineEndingsEPNSt7__cxx1112basic_stringIcSt11char_traitsIcESaIcEEEb(ptr noundef %0, i1 noundef zeroext %1) #4 {
  %3 = alloca ptr, align 8
  %4 = alloca i8, align 1
  %5 = alloca i64, align 8
  %6 = alloca i8, align 1
  %7 = alloca i64, align 8
  %8 = alloca ptr, align 8
  %9 = alloca i64, align 8
  %10 = alloca i32, align 4
  %11 = alloca i64, align 8
  %12 = alloca ptr, align 8
  store ptr %0, ptr %3, align 8, !tbaa !3
  %13 = zext i1 %1 to i8
  store i8 %13, ptr %4, align 1, !tbaa !22
  call void @llvm.lifetime.start.p0(i64 8, ptr %5) #3
  store i64 0, ptr %5, align 8, !tbaa !13
  call void @llvm.lifetime.start.p0(i64 1, ptr %6) #3
  store i8 0, ptr %6, align 1, !tbaa !22
  call void @llvm.lifetime.start.p0(i64 8, ptr %7) #3
  %14 = load ptr, ptr %3, align 8, !tbaa !3
  %15 = call noundef i64 @_ZNKSt7__cxx1112basic_stringIcSt11char_traitsIcESaIcEE4sizeEv(ptr noundef nonnull align 8 dereferenceable(32) %14) #3
  store i64 %15, ptr %7, align 8, !tbaa !13
  call void @llvm.lifetime.start.p0(i64 8, ptr %8) #3
  %16 = load ptr, ptr %3, align 8, !tbaa !3
  %17 = call noundef nonnull align 1 dereferenceable(1) ptr @_ZNSt7__cxx1112basic_stringIcSt11char_traitsIcESaIcEEixEm(ptr noundef nonnull align 8 dereferenceable(32) %16, i64 noundef 0)
  store ptr %17, ptr %8, align 8, !tbaa !8
  call void @llvm.lifetime.start.p0(i64 8, ptr %9) #3
  store i64 0, ptr %9, align 8, !tbaa !13
  br label %18

18:                                               ; preds = %120, %58, %2
  %19 = load i64, ptr %9, align 8, !tbaa !13
  %20 = load i64, ptr %7, align 8, !tbaa !13
  %21 = icmp slt i64 %19, %20
  br i1 %21, label %23, label %22

22:                                               ; preds = %18
  store i32 2, ptr %10, align 4
  call void @llvm.lifetime.end.p0(i64 8, ptr %9) #3
  br label %123

23:                                               ; preds = %18
  %24 = load i8, ptr %6, align 1, !tbaa !22, !range !24, !noundef !25
  %25 = trunc i8 %24 to i1
  br i1 %25, label %61, label %26

26:                                               ; preds = %23
  %27 = load i64, ptr %9, align 8, !tbaa !13
  %28 = add nsw i64 %27, 8
  %29 = load i64, ptr %7, align 8, !tbaa !13
  %30 = icmp slt i64 %28, %29
  br i1 %30, label %31, label %61

31:                                               ; preds = %26
  call void @llvm.lifetime.start.p0(i64 8, ptr %11) #3
  %32 = load ptr, ptr %8, align 8, !tbaa !8
  %33 = load i64, ptr %9, align 8, !tbaa !13
  %34 = getelementptr inbounds i8, ptr %32, i64 %33
  %35 = call noundef i64 @_ZN6google8protobuf23GOOGLE_UNALIGNED_LOAD64EPKv(ptr noundef %34)
  store i64 %35, ptr %11, align 8, !tbaa !13
  %36 = load i64, ptr %11, align 8, !tbaa !13
  %37 = sub i64 %36, 1012762419733073422
  %38 = load i64, ptr %11, align 8, !tbaa !13
  %39 = xor i64 %38, -1
  %40 = and i64 %37, %39
  %41 = and i64 %40, -9187201950435737472
  %42 = icmp ne i64 %41, 0
  br i1 %42, label %57, label %43

43:                                               ; preds = %31
  %44 = load i64, ptr %5, align 8, !tbaa !13
  %45 = load i64, ptr %9, align 8, !tbaa !13
  %46 = icmp ne i64 %44, %45
  br i1 %46, label %47, label %52

47:                                               ; preds = %43
  %48 = load ptr, ptr %8, align 8, !tbaa !8
  %49 = load i64, ptr %5, align 8, !tbaa !13
  %50 = getelementptr inbounds i8, ptr %48, i64 %49
  %51 = load i64, ptr %11, align 8, !tbaa !13
  call void @_ZN6google8protobuf24GOOGLE_UNALIGNED_STORE64EPvm(ptr noundef %50, i64 noundef %51)
  br label %52

52:                                               ; preds = %47, %43
  %53 = load i64, ptr %9, align 8, !tbaa !13
  %54 = add nsw i64 %53, 8
  store i64 %54, ptr %9, align 8, !tbaa !13
  %55 = load i64, ptr %5, align 8, !tbaa !13
  %56 = add nsw i64 %55, 8
  store i64 %56, ptr %5, align 8, !tbaa !13
  store i32 3, ptr %10, align 4
  br label %58, !llvm.loop !139

57:                                               ; preds = %31
  store i32 0, ptr %10, align 4
  br label %58

58:                                               ; preds = %57, %52
  call void @llvm.lifetime.end.p0(i64 8, ptr %11) #3
  %59 = load i32, ptr %10, align 4
  switch i32 %59, label %156 [
    i32 0, label %60
    i32 3, label %18
  ]

60:                                               ; preds = %58
  br label %61

61:                                               ; preds = %60, %26, %23
  call void @llvm.lifetime.start.p0(i64 8, ptr %12) #3
  %62 = load ptr, ptr %8, align 8, !tbaa !8
  %63 = load i64, ptr %9, align 8, !tbaa !13
  %64 = getelementptr inbounds i8, ptr %62, i64 %63
  store ptr %64, ptr %12, align 8, !tbaa !8
  %65 = load ptr, ptr %12, align 8, !tbaa !8
  %66 = load i8, ptr %65, align 1, !tbaa !10
  %67 = sext i8 %66 to i32
  %68 = icmp eq i32 %67, 13
  br i1 %68, label %69, label %78

69:                                               ; preds = %61
  %70 = load i8, ptr %6, align 1, !tbaa !22, !range !24, !noundef !25
  %71 = trunc i8 %70 to i1
  br i1 %71, label %72, label %77

72:                                               ; preds = %69
  %73 = load ptr, ptr %8, align 8, !tbaa !8
  %74 = load i64, ptr %5, align 8, !tbaa !13
  %75 = add nsw i64 %74, 1
  store i64 %75, ptr %5, align 8, !tbaa !13
  %76 = getelementptr inbounds i8, ptr %73, i64 %74
  store i8 10, ptr %76, align 1, !tbaa !10
  br label %77

77:                                               ; preds = %72, %69
  store i8 1, ptr %6, align 1, !tbaa !22
  br label %120

78:                                               ; preds = %61
  %79 = load ptr, ptr %12, align 8, !tbaa !8
  %80 = load i8, ptr %79, align 1, !tbaa !10
  %81 = sext i8 %80 to i32
  %82 = icmp eq i32 %81, 10
  br i1 %82, label %83, label %96

83:                                               ; preds = %78
  %84 = load i64, ptr %9, align 8, !tbaa !13
  %85 = load i64, ptr %5, align 8, !tbaa !13
  %86 = icmp ne i64 %84, %85
  br i1 %86, label %87, label %92

87:                                               ; preds = %83
  %88 = load ptr, ptr %8, align 8, !tbaa !8
  %89 = load i64, ptr %5, align 8, !tbaa !13
  %90 = add nsw i64 %89, 1
  store i64 %90, ptr %5, align 8, !tbaa !13
  %91 = getelementptr inbounds i8, ptr %88, i64 %89
  store i8 10, ptr %91, align 1, !tbaa !10
  br label %95

92:                                               ; preds = %83
  %93 = load i64, ptr %5, align 8, !tbaa !13
  %94 = add nsw i64 %93, 1
  store i64 %94, ptr %5, align 8, !tbaa !13
  br label %95

95:                                               ; preds = %92, %87
  store i8 0, ptr %6, align 1, !tbaa !22
  br label %119

96:                                               ; preds = %78
  %97 = load i8, ptr %6, align 1, !tbaa !22, !range !24, !noundef !25
  %98 = trunc i8 %97 to i1
  br i1 %98, label %99, label %104

99:                                               ; preds = %96
  %100 = load ptr, ptr %8, align 8, !tbaa !8
  %101 = load i64, ptr %5, align 8, !tbaa !13
  %102 = add nsw i64 %101, 1
  store i64 %102, ptr %5, align 8, !tbaa !13
  %103 = getelementptr inbounds i8, ptr %100, i64 %101
  store i8 10, ptr %103, align 1, !tbaa !10
  br label %104

104:                                              ; preds = %99, %96
  store i8 0, ptr %6, align 1, !tbaa !22
  %105 = load i64, ptr %9, align 8, !tbaa !13
  %106 = load i64, ptr %5, align 8, !tbaa !13
  %107 = icmp ne i64 %105, %106
  br i1 %107, label %108, label %115

108:                                              ; preds = %104
  %109 = load ptr, ptr %12, align 8, !tbaa !8
  %110 = load i8, ptr %109, align 1, !tbaa !10
  %111 = load ptr, ptr %8, align 8, !tbaa !8
  %112 = load i64, ptr %5, align 8, !tbaa !13
  %113 = add nsw i64 %112, 1
  store i64 %113, ptr %5, align 8, !tbaa !13
  %114 = getelementptr inbounds i8, ptr %111, i64 %112
  store i8 %110, ptr %114, align 1, !tbaa !10
  br label %118

115:                                              ; preds = %104
  %116 = load i64, ptr %5, align 8, !tbaa !13
  %117 = add nsw i64 %116, 1
  store i64 %117, ptr %5, align 8, !tbaa !13
  br label %118

118:                                              ; preds = %115, %108
  br label %119

119:                                              ; preds = %118, %95
  br label %120

120:                                              ; preds = %119, %77
  %121 = load i64, ptr %9, align 8, !tbaa !13
  %122 = add nsw i64 %121, 1
  store i64 %122, ptr %9, align 8, !tbaa !13
  call void @llvm.lifetime.end.p0(i64 8, ptr %12) #3
  br label %18, !llvm.loop !139

123:                                              ; preds = %22
  %124 = load i8, ptr %6, align 1, !tbaa !22, !range !24, !noundef !25
  %125 = trunc i8 %124 to i1
  br i1 %125, label %140, label %126

126:                                              ; preds = %123
  %127 = load i8, ptr %4, align 1, !tbaa !22, !range !24, !noundef !25
  %128 = trunc i8 %127 to i1
  br i1 %128, label %129, label %147

129:                                              ; preds = %126
  %130 = load i64, ptr %5, align 8, !tbaa !13
  %131 = icmp sgt i64 %130, 0
  br i1 %131, label %132, label %147

132:                                              ; preds = %129
  %133 = load ptr, ptr %8, align 8, !tbaa !8
  %134 = load i64, ptr %5, align 8, !tbaa !13
  %135 = sub nsw i64 %134, 1
  %136 = getelementptr inbounds i8, ptr %133, i64 %135
  %137 = load i8, ptr %136, align 1, !tbaa !10
  %138 = sext i8 %137 to i32
  %139 = icmp ne i32 %138, 10
  br i1 %139, label %140, label %147

140:                                              ; preds = %132, %123
  %141 = load ptr, ptr %3, align 8, !tbaa !3
  %142 = load i64, ptr %5, align 8, !tbaa !13
  %143 = add nsw i64 %142, 1
  call void @_ZNSt7__cxx1112basic_stringIcSt11char_traitsIcESaIcEE6resizeEm(ptr noundef nonnull align 8 dereferenceable(32) %141, i64 noundef %143)
  %144 = load ptr, ptr %3, align 8, !tbaa !3
  %145 = load i64, ptr %5, align 8, !tbaa !13
  %146 = call noundef nonnull align 1 dereferenceable(1) ptr @_ZNSt7__cxx1112basic_stringIcSt11char_traitsIcESaIcEEixEm(ptr noundef nonnull align 8 dereferenceable(32) %144, i64 noundef %145)
  store i8 10, ptr %146, align 1, !tbaa !10
  br label %155

147:                                              ; preds = %132, %129, %126
  %148 = load i64, ptr %5, align 8, !tbaa !13
  %149 = load i64, ptr %7, align 8, !tbaa !13
  %150 = icmp slt i64 %148, %149
  br i1 %150, label %151, label %154

151:                                              ; preds = %147
  %152 = load ptr, ptr %3, align 8, !tbaa !3
  %153 = load i64, ptr %5, align 8, !tbaa !13
  call void @_ZNSt7__cxx1112basic_stringIcSt11char_traitsIcESaIcEE6resizeEm(ptr noundef nonnull align 8 dereferenceable(32) %152, i64 noundef %153)
  br label %154

154:                                              ; preds = %151, %147
  br label %155

155:                                              ; preds = %154, %140
  call void @llvm.lifetime.end.p0(i64 8, ptr %8) #3
  call void @llvm.lifetime.end.p0(i64 8, ptr %7) #3
  call void @llvm.lifetime.end.p0(i64 1, ptr %6) #3
  call void @llvm.lifetime.end.p0(i64 8, ptr %5) #3
  ret void

156:                                              ; preds = %58
  unreachable
}